target datalayout = "e-m:e-p270:32:32-p271:32:32-p272:64:64-i64:64-i128:128-f80:128-n8:16:32:64-S128"
target triple = "x86_64-pc-linux-gnu"

%struct.Zyx_Man_t_ = type { ptr, ptr, i32, i32, i32, i32, i32, ptr, ptr, ptr, ptr, ptr, ptr, [2 x i32], [32 x [32 x i32]], [2 x [64 x i32]], [2 x i32], [1024 x i32], ptr, i64 }
%struct.Bmc_EsPar_t_ = type { i32, i32, i32, i32, i32, i32, i32, i32, i32, i32, i32, i32, i32, i32, i32, i32, i32, ptr }

; Function Attrs: nounwind uwtable
define internal i32 @Abc_Var2Lit(i32 noundef %0, i32 noundef %1) #0 {
  %3 = alloca i32, align 4
  %4 = alloca i32, align 4
  store i32 %0, ptr %3, align 4
  store i32 %1, ptr %4, align 4
  %5 = load i32, ptr %3, align 4
  %6 = load i32, ptr %3, align 4
  %7 = add nsw i32 %5, %6
  %8 = load i32, ptr %4, align 4
  %9 = add nsw i32 %7, %8
  ret i32 %9
}

; Function Attrs: nounwind uwtable
define internal i32 @Zyx_TopoVar(ptr noundef %0, i32 noundef %1, i32 noundef %2) #0 {
  %4 = alloca ptr, align 8
  %5 = alloca i32, align 4
  %6 = alloca i32, align 4
  store ptr %0, ptr %4, align 8
  store i32 %1, ptr %5, align 4
  store i32 %2, ptr %6, align 4
  %7 = load ptr, ptr %4, align 8
  %8 = getelementptr inbounds %struct.Zyx_Man_t_, ptr %7, i32 0, i32 5
  %9 = load i32, ptr %8, align 4
  %10 = load ptr, ptr %4, align 8
  %11 = getelementptr inbounds %struct.Zyx_Man_t_, ptr %10, i32 0, i32 2
  %12 = load i32, ptr %11, align 8
  %13 = load i32, ptr %5, align 4
  %14 = load ptr, ptr %4, align 8
  %15 = getelementptr inbounds %struct.Zyx_Man_t_, ptr %14, i32 0, i32 0
  %16 = load ptr, ptr %15, align 8
  %17 = getelementptr inbounds %struct.Bmc_EsPar_t_, ptr %16, i32 0, i32 0
  %18 = load i32, ptr %17, align 8
  %19 = sub nsw i32 %13, %18
  %20 = mul nsw i32 %12, %19
  %21 = add nsw i32 %9, %20
  %22 = load i32, ptr %6, align 4
  %23 = add nsw i32 %21, %22
  ret i32 %23
}

; Function Attrs: nounwind uwtable
define i32 @Zyx_ManCollectFanins(ptr noundef %0, i32 noundef %1) #0 {
  %3 = alloca ptr, align 8
  %4 = alloca i32, align 4
  %5 = alloca i32, align 4
  %6 = alloca i32, align 4
  store ptr %0, ptr %3, align 8
  store i32 %1, ptr %4, align 4
  %7 = load ptr, ptr %3, align 8
  %8 = getelementptr inbounds %struct.Zyx_Man_t_, ptr %7, i32 0, i32 16
  %9 = getelementptr inbounds [2 x i32], ptr %8, i64 0, i64 1
  store i32 0, ptr %9, align 4
  %10 = load ptr, ptr %3, align 8
  %11 = getelementptr inbounds %struct.Zyx_Man_t_, ptr %10, i32 0, i32 16
  %12 = getelementptr inbounds [2 x i32], ptr %11, i64 0, i64 0
  store i32 0, ptr %12, align 8
  store i32 0, ptr %5, align 4
  br label %13

13:                                               ; preds = %58, %2
  %14 = load i32, ptr %5, align 4
  %15 = load i32, ptr %4, align 4
  %16 = icmp slt i32 %14, %15
  br i1 %16, label %17, label %61

17:                                               ; preds = %13
  %18 = load ptr, ptr %3, align 8
  %19 = getelementptr inbounds %struct.Zyx_Man_t_, ptr %18, i32 0, i32 18
  %20 = load ptr, ptr %19, align 8
  %21 = load ptr, ptr %3, align 8
  %22 = load i32, ptr %4, align 4
  %23 = load i32, ptr %5, align 4
  %24 = call i32 @Zyx_TopoVar(ptr noundef %21, i32 noundef %22, i32 noundef %23)
  %25 = call i32 @bmcg_sat_solver_read_cex_varvalue(ptr noundef %20, i32 noundef %24)
  store i32 %25, ptr %6, align 4
  %26 = load i32, ptr %5, align 4
  %27 = load ptr, ptr %3, align 8
  %28 = getelementptr inbounds %struct.Zyx_Man_t_, ptr %27, i32 0, i32 14
  %29 = load i32, ptr %4, align 4
  %30 = sext i32 %29 to i64
  %31 = getelementptr inbounds [32 x [32 x i32]], ptr %28, i64 0, i64 %30
  %32 = load ptr, ptr %3, align 8
  %33 = getelementptr inbounds %struct.Zyx_Man_t_, ptr %32, i32 0, i32 16
  %34 = getelementptr inbounds [2 x i32], ptr %33, i64 0, i64 1
  %35 = load i32, ptr %34, align 4
  %36 = sext i32 %35 to i64
  %37 = getelementptr inbounds [32 x i32], ptr %31, i64 0, i64 %36
  store i32 %26, ptr %37, align 4
  %38 = load ptr, ptr %3, align 8
  %39 = load i32, ptr %4, align 4
  %40 = load i32, ptr %5, align 4
  %41 = call i32 @Zyx_TopoVar(ptr noundef %38, i32 noundef %39, i32 noundef %40)
  %42 = load i32, ptr %6, align 4
  %43 = call i32 @Abc_Var2Lit(i32 noundef %41, i32 noundef %42)
  %44 = load ptr, ptr %3, align 8
  %45 = getelementptr inbounds %struct.Zyx_Man_t_, ptr %44, i32 0, i32 15
  %46 = load i32, ptr %6, align 4
  %47 = sext i32 %46 to i64
  %48 = getelementptr inbounds [2 x [64 x i32]], ptr %45, i64 0, i64 %47
  %49 = load ptr, ptr %3, align 8
  %50 = getelementptr inbounds %struct.Zyx_Man_t_, ptr %49, i32 0, i32 16
  %51 = load i32, ptr %6, align 4
  %52 = sext i32 %51 to i64
  %53 = getelementptr inbounds [2 x i32], ptr %50, i64 0, i64 %52
  %54 = load i32, ptr %53, align 4
  %55 = add nsw i32 %54, 1
  store i32 %55, ptr %53, align 4
  %56 = sext i32 %54 to i64
  %57 = getelementptr inbounds [64 x i32], ptr %48, i64 0, i64 %56
  store i32 %43, ptr %57, align 4
  br label %58

58:                                               ; preds = %17
  %59 = load i32, ptr %5, align 4
  %60 = add nsw i32 %59, 1
  store i32 %60, ptr %5, align 4
  br label %13, !llvm.loop !76

61:                                               ; preds = %13
  %62 = load ptr, ptr %3, align 8
  %63 = getelementptr inbounds %struct.Zyx_Man_t_, ptr %62, i32 0, i32 16
  %64 = getelementptr inbounds [2 x i32], ptr %63, i64 0, i64 1
  %65 = load i32, ptr %64, align 4
  ret i32 %65
}