; Function Attrs: nounwind uwtable
define i32 @Zyx_ManCollectFanins(ptr noundef captures(none) initializes((4704, 4712)) %0, i32 noundef %1) local_unnamed_addr #2 {
  %3 = getelementptr inbounds nuw i8, ptr %0, i64 4704
  %4 = getelementptr inbounds nuw i8, ptr %0, i64 4708
  store i32 0, ptr %4, align 4
  store i32 0, ptr %3, align 8
  %5 = icmp sgt i32 %1, 0
  br i1 %5, label %.lr.ph, label %._crit_edge

.lr.ph:                                           ; preds = %2
  %6 = getelementptr inbounds nuw i8, ptr %0, i64 8808
  %7 = getelementptr inbounds nuw i8, ptr %0, i64 28
  %8 = getelementptr inbounds nuw i8, ptr %0, i64 16
  %9 = getelementptr inbounds nuw i8, ptr %0, i64 96
  %10 = zext nneg i32 %1 to i64
  %11 = getelementptr inbounds nuw i8, ptr %0, i64 4192
  br label %12

12:                                               ; preds = %.lr.ph, %12
  %.022 = phi i32 [ 0, %.lr.ph ], [ %42, %12 ]
  %13 = load ptr, ptr %6, align 8
  %14 = load i32, ptr %7, align 4
  %15 = load i32, ptr %8, align 8
  %16 = load ptr, ptr %0, align 8
  %17 = load i32, ptr %16, align 8
  %18 = sub nsw i32 %1, %17
  %19 = mul nsw i32 %18, %15
  %20 = add i32 %14, %.022
  %21 = add i32 %20, %19
  %22 = tail call i32 @bmcg_sat_solver_read_cex_varvalue(ptr noundef %13, i32 noundef %21) #22
  %23 = load i32, ptr %4, align 4
  %24 = sext i32 %23 to i64
  %25 = getelementptr inbounds [32 x [32 x i32]], ptr %9, i64 0, i64 %10, i64 %24
  store i32 %.022, ptr %25, align 4
  %26 = load i32, ptr %7, align 4
  %27 = load i32, ptr %8, align 8
  %28 = load ptr, ptr %0, align 8
  %29 = load i32, ptr %28, align 8
  %30 = sub nsw i32 %1, %29
  %31 = mul nsw i32 %30, %27
  %32 = add i32 %26, %.022
  %33 = add i32 %32, %31
  %34 = shl nsw i32 %33, 1
  %35 = add nsw i32 %34, %22
  %36 = sext i32 %22 to i64
  %37 = getelementptr inbounds [2 x i32], ptr %3, i64 0, i64 %36
  %38 = load i32, ptr %37, align 4
  %39 = add nsw i32 %38, 1
  store i32 %39, ptr %37, align 4
  %40 = sext i32 %38 to i64
  %41 = getelementptr inbounds [2 x [64 x i32]], ptr %11, i64 0, i64 %36, i64 %40
  store i32 %35, ptr %41, align 4
  %42 = add nuw nsw i32 %.022, 1
  %exitcond.not = icmp eq i32 %42, %1
  br i1 %exitcond.not, label %._crit_edge.loopexit, label %12, !llvm.loop !75

._crit_edge.loopexit:                             ; preds = %12
  %.pre = load i32, ptr %4, align 4
  br label %._crit_edge

._crit_edge:                                      ; preds = %._crit_edge.loopexit, %2
  %43 = phi i32 [ %.pre, %._crit_edge.loopexit ], [ 0, %2 ]
  ret i32 %43
}